; Function Attrs: mustprogress nofree norecurse nosync nounwind willreturn memory(argmem: read) uwtable
define ptr @usearch_getCollator_75(ptr noundef readonly %strsrch) local_unnamed_addr #8 {
entry:
  %tobool.not = icmp eq ptr %strsrch, null
  br i1 %tobool.not, label %return, label %if.then

if.then:                                          ; preds = %entry
  %collator = getelementptr inbounds i8, ptr %strsrch, i64 3128
  %0 = load ptr, ptr %collator, align 8
  br label %return

return:                                           ; preds = %entry, %if.then
  %retval.0 = phi ptr [ %0, %if.then ], [ null, %entry ]
  ret ptr %retval.0
}